target datalayout = "e-m:e-p270:32:32-p271:32:32-p272:64:64-i64:64-i128:128-f80:128-n8:16:32:64-S128"
target triple = "x86_64-pc-linux-gnu"

%struct.ident_t = type { i32, i32, i32, i32, ptr }

@1 = private unnamed_addr constant %struct.ident_t { i32 0, i32 514, i32 0, i32 22, ptr @0 }, align 8

; Function Attrs: noinline norecurse nounwind uwtable
define internal void @_ZNK8LightGBM7Dataset24ConstructHistogramsInnerILb1ELb1ELb0ELi0EEEvRKSt6vectorIaSaIaEEPKiiPKfSA_PfSB_PNS_19TrainingShareStatesEPd.omp_outlined(ptr noalias noundef %0, ptr noalias noundef %1, ptr noundef nonnull align 4 dereferenceable(4) %2, ptr noundef nonnull align 8 dereferenceable(8) %3, ptr noundef nonnull align 8 dereferenceable(8) %4, ptr noundef nonnull align 8 dereferenceable(8) %5, ptr noundef nonnull align 8 dereferenceable(8) %6, ptr noundef nonnull align 8 dereferenceable(8) %7) #20 {
  %9 = alloca ptr, align 8
  %10 = alloca ptr, align 8
  %11 = alloca ptr, align 8
  %12 = alloca ptr, align 8
  %13 = alloca ptr, align 8
  %14 = alloca ptr, align 8
  %15 = alloca ptr, align 8
  %16 = alloca ptr, align 8
  %17 = alloca i32, align 4
  %18 = alloca i32, align 4
  %19 = alloca i32, align 4
  %20 = alloca i32, align 4
  %21 = alloca i32, align 4
  %22 = alloca i32, align 4
  %23 = alloca i32, align 4
  %24 = alloca i32, align 4
  %25 = alloca i32, align 4
  store ptr %0, ptr %9, align 8, !tbaa !162
  store ptr %1, ptr %10, align 8, !tbaa !162
  store ptr %2, ptr %11, align 8, !tbaa !162
  store ptr %3, ptr %12, align 8, !tbaa !316
  store ptr %4, ptr %13, align 8, !tbaa !316
  store ptr %5, ptr %14, align 8, !tbaa !318
  store ptr %6, ptr %15, align 8, !tbaa !316
  store ptr %7, ptr %16, align 8, !tbaa !316
  %26 = load ptr, ptr %11, align 8, !tbaa !162
  %27 = load ptr, ptr %12, align 8, !tbaa !316
  %28 = load ptr, ptr %13, align 8, !tbaa !316
  %29 = load ptr, ptr %14, align 8, !tbaa !318
  %30 = load ptr, ptr %15, align 8, !tbaa !316
  %31 = load ptr, ptr %16, align 8, !tbaa !316
  call void @llvm.lifetime.start.p0(i64 4, ptr %17) #3
  call void @llvm.lifetime.start.p0(i64 4, ptr %18) #3
  %32 = load i32, ptr %26, align 4, !tbaa !15
  store i32 %32, ptr %18, align 4, !tbaa !15
  call void @llvm.lifetime.start.p0(i64 4, ptr %19) #3
  %33 = load i32, ptr %18, align 4, !tbaa !15
  %34 = sub nsw i32 %33, 0
  %35 = sdiv i32 %34, 1
  %36 = sub nsw i32 %35, 1
  store i32 %36, ptr %19, align 4, !tbaa !15
  call void @llvm.lifetime.start.p0(i64 4, ptr %20) #3
  store i32 0, ptr %20, align 4, !tbaa !15
  call void @llvm.lifetime.end.p0(i64 4, ptr %20) #3
  %37 = load i32, ptr %18, align 4, !tbaa !15
  %38 = icmp slt i32 0, %37
  br i1 %38, label %39, label %109

39:                                               ; preds = %8
  call void @llvm.lifetime.start.p0(i64 4, ptr %21) #3
  store i32 0, ptr %21, align 4, !tbaa !15
  call void @llvm.lifetime.start.p0(i64 4, ptr %22) #3
  %40 = load i32, ptr %19, align 4, !tbaa !15
  store i32 %40, ptr %22, align 4, !tbaa !15
  call void @llvm.lifetime.start.p0(i64 4, ptr %23) #3
  store i32 1, ptr %23, align 4, !tbaa !15
  call void @llvm.lifetime.start.p0(i64 4, ptr %24) #3
  store i32 0, ptr %24, align 4, !tbaa !15
  call void @llvm.lifetime.start.p0(i64 4, ptr %25) #3
  %41 = load ptr, ptr %9, align 8
  %42 = load i32, ptr %41, align 4, !tbaa !15
  call void @__kmpc_for_static_init_4(ptr @1, i32 %42, i32 33, ptr %24, ptr %21, ptr %22, ptr %23, i32 1, i32 512)
  br label %43

43:                                               ; preds = %99, %39
  %44 = load i32, ptr %22, align 4, !tbaa !15
  %45 = load i32, ptr %19, align 4, !tbaa !15
  %46 = icmp sgt i32 %44, %45
  br i1 %46, label %47, label %49

47:                                               ; preds = %43
  %48 = load i32, ptr %19, align 4, !tbaa !15
  br label %51

49:                                               ; preds = %43
  %50 = load i32, ptr %22, align 4, !tbaa !15
  br label %51

51:                                               ; preds = %49, %47
  %52 = phi i32 [ %48, %47 ], [ %50, %49 ]
  store i32 %52, ptr %22, align 4, !tbaa !15
  %53 = load i32, ptr %21, align 4, !tbaa !15
  store i32 %53, ptr %17, align 4, !tbaa !15
  %54 = load i32, ptr %17, align 4, !tbaa !15
  %55 = load i32, ptr %22, align 4, !tbaa !15
  %56 = icmp sle i32 %54, %55
  br i1 %56, label %58, label %57

57:                                               ; preds = %51
  br label %106

58:                                               ; preds = %51
  br label %59

59:                                               ; preds = %95, %58
  %60 = load i32, ptr %17, align 4, !tbaa !15
  %61 = load i32, ptr %22, align 4, !tbaa !15
  %62 = icmp sle i32 %60, %61
  br i1 %62, label %64, label %63

63:                                               ; preds = %59
  br label %98

64:                                               ; preds = %59
  %65 = load i32, ptr %17, align 4, !tbaa !15
  %66 = mul nsw i32 %65, 1
  %67 = add nsw i32 0, %66
  store i32 %67, ptr %25, align 4, !tbaa !15
  %68 = load ptr, ptr %28, align 8, !tbaa !9
  %69 = load ptr, ptr %29, align 8, !tbaa !162
  %70 = load i32, ptr %25, align 4, !tbaa !15
  %71 = sext i32 %70 to i64
  %72 = getelementptr inbounds i32, ptr %69, i64 %71
  %73 = load i32, ptr %72, align 4, !tbaa !15
  %74 = sext i32 %73 to i64
  %75 = getelementptr inbounds float, ptr %68, i64 %74
  %76 = load float, ptr %75, align 4, !tbaa !320
  %77 = load ptr, ptr %27, align 8, !tbaa !9
  %78 = load i32, ptr %25, align 4, !tbaa !15
  %79 = sext i32 %78 to i64
  %80 = getelementptr inbounds float, ptr %77, i64 %79
  store float %76, ptr %80, align 4, !tbaa !320
  %81 = load ptr, ptr %31, align 8, !tbaa !9
  %82 = load ptr, ptr %29, align 8, !tbaa !162
  %83 = load i32, ptr %25, align 4, !tbaa !15
  %84 = sext i32 %83 to i64
  %85 = getelementptr inbounds i32, ptr %82, i64 %84
  %86 = load i32, ptr %85, align 4, !tbaa !15
  %87 = sext i32 %86 to i64
  %88 = getelementptr inbounds float, ptr %81, i64 %87
  %89 = load float, ptr %88, align 4, !tbaa !320
  %90 = load ptr, ptr %30, align 8, !tbaa !9
  %91 = load i32, ptr %25, align 4, !tbaa !15
  %92 = sext i32 %91 to i64
  %93 = getelementptr inbounds float, ptr %90, i64 %92
  store float %89, ptr %93, align 4, !tbaa !320
  br label %94

94:                                               ; preds = %64
  br label %95

95:                                               ; preds = %94
  %96 = load i32, ptr %17, align 4, !tbaa !15
  %97 = add nsw i32 %96, 1
  store i32 %97, ptr %17, align 4, !tbaa !15
  br label %59

98:                                               ; preds = %63
  br label %99

99:                                               ; preds = %98
  %100 = load i32, ptr %21, align 4, !tbaa !15
  %101 = load i32, ptr %23, align 4, !tbaa !15
  %102 = add nsw i32 %100, %101
  store i32 %102, ptr %21, align 4, !tbaa !15
  %103 = load i32, ptr %22, align 4, !tbaa !15
  %104 = load i32, ptr %23, align 4, !tbaa !15
  %105 = add nsw i32 %103, %104
  store i32 %105, ptr %22, align 4, !tbaa !15
  br label %43

106:                                              ; preds = %57
  %107 = load ptr, ptr %9, align 8
  %108 = load i32, ptr %107, align 4, !tbaa !15
  call void @__kmpc_for_static_fini(ptr @1, i32 %108)
  call void @llvm.lifetime.end.p0(i64 4, ptr %25) #3
  call void @llvm.lifetime.end.p0(i64 4, ptr %24) #3
  call void @llvm.lifetime.end.p0(i64 4, ptr %23) #3
  call void @llvm.lifetime.end.p0(i64 4, ptr %22) #3
  call void @llvm.lifetime.end.p0(i64 4, ptr %21) #3
  br label %109

109:                                              ; preds = %106, %8
  call void @llvm.lifetime.end.p0(i64 4, ptr %19) #3
  call void @llvm.lifetime.end.p0(i64 4, ptr %18) #3
  call void @llvm.lifetime.end.p0(i64 4, ptr %17) #3
  ret void
}