; Function Attrs: noinline norecurse nounwind uwtable
define internal void @_ZNK8LightGBM7Dataset24ConstructHistogramsInnerILb1ELb1ELb0ELi0EEEvRKSt6vectorIaSaIaEEPKiiPKfSA_PfSB_PNS_19TrainingShareStatesEPd.omp_outlined(ptr noalias noundef readonly captures(none) %0, ptr noalias readnone captures(none) %1, ptr noundef nonnull readonly align 4 captures(none) dereferenceable(4) %2, ptr noundef nonnull readonly align 8 captures(none) dereferenceable(8) %3, ptr noundef nonnull readonly align 8 captures(none) dereferenceable(8) %4, ptr noundef nonnull readonly align 8 captures(none) dereferenceable(8) %5, ptr noundef nonnull readonly align 8 captures(none) dereferenceable(8) %6, ptr noundef nonnull readonly align 8 captures(none) dereferenceable(8) %7) #19 {
  %9 = alloca i32, align 4
  %10 = alloca i32, align 4
  %11 = alloca i32, align 4
  %12 = alloca i32, align 4
  %13 = load i32, ptr %2, align 4, !tbaa !104
  %14 = add nsw i32 %13, -1
  %15 = icmp sgt i32 %13, 0
  br i1 %15, label %16, label %42

16:                                               ; preds = %8
  call void @llvm.lifetime.start.p0(i64 4, ptr nonnull %9) #20
  store i32 0, ptr %9, align 4, !tbaa !104
  call void @llvm.lifetime.start.p0(i64 4, ptr nonnull %10) #20
  store i32 %14, ptr %10, align 4, !tbaa !104
  call void @llvm.lifetime.start.p0(i64 4, ptr nonnull %11) #20
  store i32 1, ptr %11, align 4, !tbaa !104
  call void @llvm.lifetime.start.p0(i64 4, ptr nonnull %12) #20
  store i32 0, ptr %12, align 4, !tbaa !104
  %17 = load i32, ptr %0, align 4, !tbaa !104
  call void @__kmpc_for_static_init_4(ptr nonnull @1, i32 %17, i32 33, ptr nonnull %12, ptr nonnull %9, ptr nonnull %10, ptr nonnull %11, i32 1, i32 512)
  %.promoted = load i32, ptr %10, align 4, !tbaa !104
  %.promoted23 = load i32, ptr %9, align 4, !tbaa !104
  %18 = call i32 @llvm.smin.i32(i32 %.promoted, i32 %14)
  store i32 %18, ptr %10, align 4, !tbaa !104
  %.not24 = icmp sgt i32 %.promoted23, %18
  br i1 %.not24, label %._crit_edge, label %.preheader.lr.ph

.preheader.lr.ph:                                 ; preds = %16
  %19 = load ptr, ptr %4, align 8, !tbaa !184
  %20 = load ptr, ptr %5, align 8, !tbaa !152
  %21 = load ptr, ptr %3, align 8, !tbaa !184
  %22 = load ptr, ptr %7, align 8, !tbaa !184
  %23 = load ptr, ptr %6, align 8, !tbaa !184
  %24 = load i32, ptr %11, align 4, !tbaa !104
  %25 = sext i32 %.promoted23 to i64
  %26 = sext i32 %24 to i64
  br label %.preheader

.preheader:                                       ; preds = %.preheader.lr.ph, %39
  %indvars.iv = phi i64 [ %25, %.preheader.lr.ph ], [ %indvars.iv.next, %39 ]
  %27 = phi i32 [ %18, %.preheader.lr.ph ], [ %41, %39 ]
  %28 = sext i32 %27 to i64
  br label %29

29:                                               ; preds = %.preheader, %29
  %indvars.iv25 = phi i64 [ %indvars.iv, %.preheader ], [ %indvars.iv.next26, %29 ]
  %30 = getelementptr inbounds i32, ptr %20, i64 %indvars.iv25
  %31 = load i32, ptr %30, align 4, !tbaa !104
  %32 = sext i32 %31 to i64
  %33 = getelementptr inbounds float, ptr %19, i64 %32
  %34 = load float, ptr %33, align 4, !tbaa !219
  %35 = getelementptr inbounds float, ptr %21, i64 %indvars.iv25
  store float %34, ptr %35, align 4, !tbaa !219
  %36 = getelementptr inbounds float, ptr %22, i64 %32
  %37 = load float, ptr %36, align 4, !tbaa !219
  %38 = getelementptr inbounds float, ptr %23, i64 %indvars.iv25
  store float %37, ptr %38, align 4, !tbaa !219
  %indvars.iv.next26 = add nsw i64 %indvars.iv25, 1
  %.not21.not = icmp slt i64 %indvars.iv25, %28
  br i1 %.not21.not, label %29, label %39

39:                                               ; preds = %29
  %indvars.iv.next = add i64 %indvars.iv, %26
  %indvars = trunc i64 %indvars.iv.next to i32
  store i32 %indvars, ptr %9, align 4, !tbaa !104
  %40 = add nsw i32 %24, %27
  %41 = call i32 @llvm.smin.i32(i32 %40, i32 %14)
  store i32 %41, ptr %10, align 4, !tbaa !104
  %.not = icmp slt i32 %41, %indvars
  br i1 %.not, label %._crit_edge, label %.preheader

._crit_edge:                                      ; preds = %39, %16
  call void @__kmpc_for_static_fini(ptr nonnull @1, i32 %17)
  call void @llvm.lifetime.end.p0(i64 4, ptr nonnull %12) #20
  call void @llvm.lifetime.end.p0(i64 4, ptr nonnull %11) #20
  call void @llvm.lifetime.end.p0(i64 4, ptr nonnull %10) #20
  call void @llvm.lifetime.end.p0(i64 4, ptr nonnull %9) #20
  br label %42

42:                                               ; preds = %._crit_edge, %8
  ret void
}